target datalayout = "e-m:e-p270:32:32-p271:32:32-p272:64:64-i64:64-i128:128-f80:128-n8:16:32:64-S128"
target triple = "x86_64-pc-linux-gnu"

@.str.2 = private unnamed_addr constant [34 x i8] c"../openssl/crypto/x509/v3_sxnet.c\00", align 1
@__func__.SXNET_add_id_asc = private unnamed_addr constant [17 x i8] c"SXNET_add_id_asc\00", align 1

; Function Attrs: nounwind uwtable
define i32 @SXNET_add_id_asc(ptr noundef %0, ptr noundef %1, ptr noundef %2, i32 noundef %3) #0 {
  %5 = alloca i32, align 4
  %6 = alloca ptr, align 8
  %7 = alloca ptr, align 8
  %8 = alloca ptr, align 8
  %9 = alloca i32, align 4
  %10 = alloca ptr, align 8
  %11 = alloca i32, align 4
  store ptr %0, ptr %6, align 8, !tbaa !43
  store ptr %1, ptr %7, align 8, !tbaa !36
  store ptr %2, ptr %8, align 8, !tbaa !36
  store i32 %3, ptr %9, align 4, !tbaa !14
  call void @llvm.lifetime.start.p0(i64 8, ptr %10) #5
  %12 = load ptr, ptr %7, align 8, !tbaa !36
  %13 = call ptr @s2i_ASN1_INTEGER(ptr noundef null, ptr noundef %12)
  store ptr %13, ptr %10, align 8, !tbaa !45
  %14 = icmp eq ptr %13, null
  br i1 %14, label %15, label %16

15:                                               ; preds = %4
  call void @ERR_new()
  call void @ERR_set_debug(ptr noundef @.str.2, i32 noundef 125, ptr noundef @__func__.SXNET_add_id_asc)
  call void (i32, i32, ptr, ...) @ERR_set_error(i32 noundef 34, i32 noundef 131, ptr noundef null)
  store i32 0, ptr %5, align 4
  store i32 1, ptr %11, align 4
  br label %26

16:                                               ; preds = %4
  %17 = load ptr, ptr %6, align 8, !tbaa !43
  %18 = load ptr, ptr %10, align 8, !tbaa !45
  %19 = load ptr, ptr %8, align 8, !tbaa !36
  %20 = load i32, ptr %9, align 4, !tbaa !14
  %21 = call i32 @SXNET_add_id_INTEGER(ptr noundef %17, ptr noundef %18, ptr noundef %19, i32 noundef %20)
  %22 = icmp ne i32 %21, 0
  br i1 %22, label %25, label %23

23:                                               ; preds = %16
  %24 = load ptr, ptr %10, align 8, !tbaa !45
  call void @ASN1_INTEGER_free(ptr noundef %24)
  store i32 0, ptr %5, align 4
  store i32 1, ptr %11, align 4
  br label %26

25:                                               ; preds = %16
  store i32 1, ptr %5, align 4
  store i32 1, ptr %11, align 4
  br label %26

26:                                               ; preds = %25, %23, %15
  call void @llvm.lifetime.end.p0(i64 8, ptr %10) #5
  %27 = load i32, ptr %5, align 4
  ret i32 %27
}