; Function Attrs: nounwind uwtable
define range(i32 0, 2) i32 @SXNET_add_id_asc(ptr noundef captures(address_is_null) %0, ptr noundef %1, ptr noundef %2, i32 noundef %3) local_unnamed_addr #1 {
  %5 = tail call ptr @s2i_ASN1_INTEGER(ptr noundef null, ptr noundef %1) #5
  %6 = icmp eq ptr %5, null
  br i1 %6, label %7, label %8

7:                                                ; preds = %4
  tail call void @ERR_new() #5
  tail call void @ERR_set_debug(ptr noundef nonnull @.str.2, i32 noundef 125, ptr noundef nonnull @__func__.SXNET_add_id_asc) #5
  tail call void (i32, i32, ptr, ...) @ERR_set_error(i32 noundef 34, i32 noundef 131, ptr noundef null) #5
  br label %11

8:                                                ; preds = %4
  %9 = tail call i32 @SXNET_add_id_INTEGER(ptr noundef %0, ptr noundef nonnull %5, ptr noundef %2, i32 noundef %3)
  %.not = icmp eq i32 %9, 0
  br i1 %.not, label %10, label %11

10:                                               ; preds = %8
  tail call void @ASN1_INTEGER_free(ptr noundef nonnull %5) #5
  br label %11

11:                                               ; preds = %8, %10, %7
  %.0 = phi i32 [ 0, %7 ], [ 0, %10 ], [ 1, %8 ]
  ret i32 %.0
}